; Function Attrs: mustprogress uwtable
define hidden noundef ptr @_ZN11ast_manager6mk_appEiijPK9parameterjPKP4exprP4sort(ptr noundef nonnull align 8 dereferenceable(976) %0, i32 noundef %1, i32 noundef %2, i32 noundef %3, ptr noundef %4, i32 noundef %5, ptr noundef %6, ptr noundef %7) local_unnamed_addr #7 align 2 {
  %9 = getelementptr inbounds nuw i8, ptr %0, i64 704
  %10 = load ptr, ptr %9, align 8, !tbaa !33
  %11 = icmp eq ptr %10, null
  br i1 %11, label %_ZN11ast_manager12mk_func_declEiijPK9parameterjPKP4exprP4sort.exit.thread, label %_ZNK6vectorIP11decl_pluginLb0EjE3getEjRKS1_.exit.i.i

_ZNK6vectorIP11decl_pluginLb0EjE3getEjRKS1_.exit.i.i: ; preds = %8
  %12 = getelementptr inbounds i8, ptr %10, i64 -4
  %13 = load i32, ptr %12, align 4, !tbaa !24
  %.not.i.i.i = icmp ult i32 %1, %13
  br i1 %.not.i.i.i, label %_ZNK11ast_manager10get_pluginEi.exit.i, label %_ZN11ast_manager12mk_func_declEiijPK9parameterjPKP4exprP4sort.exit.thread

_ZNK11ast_manager10get_pluginEi.exit.i:           ; preds = %_ZNK6vectorIP11decl_pluginLb0EjE3getEjRKS1_.exit.i.i
  %14 = zext i32 %1 to i64
  %15 = getelementptr inbounds nuw ptr, ptr %10, i64 %14
  %.then.val.i.i = load ptr, ptr %15, align 8, !tbaa !37
  %.not.i = icmp eq ptr %.then.val.i.i, null
  br i1 %.not.i, label %_ZN11ast_manager12mk_func_declEiijPK9parameterjPKP4exprP4sort.exit.thread, label %_ZN11ast_manager12mk_func_declEiijPK9parameterjPKP4exprP4sort.exit

_ZN11ast_manager12mk_func_declEiijPK9parameterjPKP4exprP4sort.exit: ; preds = %_ZNK11ast_manager10get_pluginEi.exit.i
  %16 = load ptr, ptr %.then.val.i.i, align 8, !tbaa !39
  %17 = getelementptr inbounds nuw i8, ptr %16, i64 64
  %18 = load ptr, ptr %17, align 8
  %19 = tail call noundef ptr %18(ptr noundef nonnull align 8 dereferenceable(20) %.then.val.i.i, i32 noundef %2, i32 noundef %3, ptr noundef %4, i32 noundef %5, ptr noundef %6, ptr noundef %7)
  %.not = icmp eq ptr %19, null
  br i1 %.not, label %_ZN11ast_manager12mk_func_declEiijPK9parameterjPKP4exprP4sort.exit.thread, label %20

20:                                               ; preds = %_ZN11ast_manager12mk_func_declEiijPK9parameterjPKP4exprP4sort.exit
  %21 = tail call noundef ptr @_ZN11ast_manager6mk_appEP9func_decljPKP4expr(ptr noundef nonnull align 8 dereferenceable(976) %0, ptr noundef nonnull %19, i32 noundef %5, ptr noundef %6)
  br label %_ZN11ast_manager12mk_func_declEiijPK9parameterjPKP4exprP4sort.exit.thread

_ZN11ast_manager12mk_func_declEiijPK9parameterjPKP4exprP4sort.exit.thread: ; preds = %8, %_ZNK6vectorIP11decl_pluginLb0EjE3getEjRKS1_.exit.i.i, %_ZNK11ast_manager10get_pluginEi.exit.i, %_ZN11ast_manager12mk_func_declEiijPK9parameterjPKP4exprP4sort.exit, %20
  %.0 = phi ptr [ %21, %20 ], [ null, %_ZN11ast_manager12mk_func_declEiijPK9parameterjPKP4exprP4sort.exit ], [ null, %_ZNK11ast_manager10get_pluginEi.exit.i ], [ null, %_ZNK6vectorIP11decl_pluginLb0EjE3getEjRKS1_.exit.i.i ], [ null, %8 ]
  ret ptr %.0
}